; Function Attrs: mustprogress uwtable
define hidden void @_ZNK4cvc58internal6theory9Evaluator4evalENS0_12NodeTemplateILb0EEERKSt6vectorINS3_ILb1EEESaIS6_EESA_(ptr dead_on_unwind noalias writable sret(%"class.cvc5::internal::NodeTemplate") align 8 %0, ptr noundef nonnull readonly align 8 captures(none) dereferenceable(12) %1, ptr noundef readonly captures(none) %2, ptr noundef nonnull readonly align 8 captures(none) dereferenceable(24) %3, ptr noundef nonnull readonly align 8 captures(none) dereferenceable(24) %4) local_unnamed_addr #3 align 2 personality ptr @__gxx_personality_v0 {
  %6 = alloca %"class.std::unordered_map", align 8
  %7 = alloca %"class.cvc5::internal::NodeTemplate.86", align 8
  call void @llvm.lifetime.start.p0(i64 56, ptr nonnull %6) #23
  %8 = getelementptr inbounds nuw i8, ptr %6, i64 48
  store ptr %8, ptr %6, align 8, !tbaa !33
  %9 = getelementptr inbounds nuw i8, ptr %6, i64 8
  store i64 1, ptr %9, align 8, !tbaa !41
  %10 = getelementptr inbounds nuw i8, ptr %6, i64 16
  %11 = getelementptr inbounds nuw i8, ptr %6, i64 32
  call void @llvm.memset.p0.i64(ptr noundef nonnull align 8 dereferenceable(16) %10, i8 0, i64 16, i1 false)
  store float 1.000000e+00, ptr %11, align 8, !tbaa !42
  %12 = getelementptr inbounds nuw i8, ptr %6, i64 40
  call void @llvm.memset.p0.i64(ptr noundef nonnull align 8 dereferenceable(16) %12, i8 0, i64 16, i1 false)
  %13 = load ptr, ptr %2, align 8, !tbaa !43
  store ptr %13, ptr %7, align 8, !tbaa !43
  invoke void @_ZNK4cvc58internal6theory9Evaluator4evalENS0_12NodeTemplateILb0EEERKSt6vectorINS3_ILb1EEESaIS6_EESA_RKSt13unordered_mapIS6_S6_St4hashIS6_ESt8equal_toIS6_ESaISt4pairIKS6_S6_EEE(ptr dead_on_unwind writable sret(%"class.cvc5::internal::NodeTemplate") align 8 %0, ptr noundef nonnull align 8 dereferenceable(12) %1, ptr noundef nonnull %7, ptr noundef nonnull align 8 dereferenceable(24) %3, ptr noundef nonnull align 8 dereferenceable(24) %4, ptr noundef nonnull align 8 dereferenceable(56) %6)
          to label %14 unwind label %28

14:                                               ; preds = %5
  %15 = load ptr, ptr %10, align 8, !tbaa !45
  %.not5.i.i.i.i = icmp eq ptr %15, null
  br i1 %.not5.i.i.i.i, label %_ZNSt10_HashtableIN4cvc58internal12NodeTemplateILb1EEESt4pairIKS3_S3_ESaIS6_ENSt8__detail10_Select1stESt8equal_toIS3_ESt4hashIS3_ENS8_18_Mod_range_hashingENS8_20_Default_ranged_hashENS8_20_Prime_rehash_policyENS8_17_Hashtable_traitsILb1ELb0ELb1EEEE5clearEv.exit.i.i, label %.lr.ph.i.i.i.i

.lr.ph.i.i.i.i:                                   ; preds = %14, %.noexc.i.i.i
  %.06.i.i.i.i = phi ptr [ %16, %.noexc.i.i.i ], [ %15, %14 ]
  %16 = load ptr, ptr %.06.i.i.i.i, align 8, !tbaa !46
  invoke void @_ZNSt8__detail16_Hashtable_allocISaINS_10_Hash_nodeISt4pairIKN4cvc58internal12NodeTemplateILb1EEES6_ELb1EEEEE18_M_deallocate_nodeEPS9_(ptr noundef nonnull align 8 dereferenceable(56) %6, ptr noundef nonnull %.06.i.i.i.i)
          to label %.noexc.i.i.i unwind label %17

.noexc.i.i.i:                                     ; preds = %.lr.ph.i.i.i.i
  %.not.i.i.i.i = icmp eq ptr %16, null
  br i1 %.not.i.i.i.i, label %_ZNSt10_HashtableIN4cvc58internal12NodeTemplateILb1EEESt4pairIKS3_S3_ESaIS6_ENSt8__detail10_Select1stESt8equal_toIS3_ESt4hashIS3_ENS8_18_Mod_range_hashingENS8_20_Default_ranged_hashENS8_20_Prime_rehash_policyENS8_17_Hashtable_traitsILb1ELb0ELb1EEEE5clearEv.exit.i.i, label %.lr.ph.i.i.i.i, !llvm.loop !47

17:                                               ; preds = %.lr.ph.i.i.i.i
  %18 = landingpad { ptr, i32 }
          catch ptr null
  %19 = extractvalue { ptr, i32 } %18, 0
  call void @__clang_call_terminate(ptr %19) #24
  unreachable

_ZNSt10_HashtableIN4cvc58internal12NodeTemplateILb1EEESt4pairIKS3_S3_ESaIS6_ENSt8__detail10_Select1stESt8equal_toIS3_ESt4hashIS3_ENS8_18_Mod_range_hashingENS8_20_Default_ranged_hashENS8_20_Prime_rehash_policyENS8_17_Hashtable_traitsILb1ELb0ELb1EEEE5clearEv.exit.i.i: ; preds = %.noexc.i.i.i, %14
  %20 = load ptr, ptr %6, align 8, !tbaa !33
  %21 = load i64, ptr %9, align 8, !tbaa !41
  %22 = shl i64 %21, 3
  call void @llvm.memset.p0.i64(ptr align 8 %20, i8 0, i64 %22, i1 false)
  call void @llvm.memset.p0.i64(ptr noundef nonnull align 8 dereferenceable(16) %10, i8 0, i64 16, i1 false)
  %23 = load ptr, ptr %6, align 8, !tbaa !33
  %24 = icmp eq ptr %23, %8
  br i1 %24, label %_ZNSt13unordered_mapIN4cvc58internal12NodeTemplateILb1EEES3_St4hashIS3_ESt8equal_toIS3_ESaISt4pairIKS3_S3_EEED2Ev.exit, label %25

25:                                               ; preds = %_ZNSt10_HashtableIN4cvc58internal12NodeTemplateILb1EEESt4pairIKS3_S3_ESaIS6_ENSt8__detail10_Select1stESt8equal_toIS3_ESt4hashIS3_ENS8_18_Mod_range_hashingENS8_20_Default_ranged_hashENS8_20_Prime_rehash_policyENS8_17_Hashtable_traitsILb1ELb0ELb1EEEE5clearEv.exit.i.i
  %26 = load i64, ptr %9, align 8, !tbaa !41
  %27 = shl i64 %26, 3
  call void @_ZdlPvm(ptr noundef %23, i64 noundef %27) #25
  br label %_ZNSt13unordered_mapIN4cvc58internal12NodeTemplateILb1EEES3_St4hashIS3_ESt8equal_toIS3_ESaISt4pairIKS3_S3_EEED2Ev.exit

_ZNSt13unordered_mapIN4cvc58internal12NodeTemplateILb1EEES3_St4hashIS3_ESt8equal_toIS3_ESaISt4pairIKS3_S3_EEED2Ev.exit: ; preds = %_ZNSt10_HashtableIN4cvc58internal12NodeTemplateILb1EEESt4pairIKS3_S3_ESaIS6_ENSt8__detail10_Select1stESt8equal_toIS3_ESt4hashIS3_ENS8_18_Mod_range_hashingENS8_20_Default_ranged_hashENS8_20_Prime_rehash_policyENS8_17_Hashtable_traitsILb1ELb0ELb1EEEE5clearEv.exit.i.i, %25
  call void @llvm.lifetime.end.p0(i64 56, ptr nonnull %6) #23
  ret void

28:                                               ; preds = %5
  %29 = landingpad { ptr, i32 }
          cleanup
  call void @_ZNSt13unordered_mapIN4cvc58internal12NodeTemplateILb1EEES3_St4hashIS3_ESt8equal_toIS3_ESaISt4pairIKS3_S3_EEED2Ev(ptr noundef nonnull align 8 dereferenceable(56) %6) #23
  call void @llvm.lifetime.end.p0(i64 56, ptr nonnull %6) #23
  resume { ptr, i32 } %29
}